target datalayout = "e-m:e-p270:32:32-p271:32:32-p272:64:64-i64:64-i128:128-f80:128-n8:16:32:64-S128"
target triple = "x86_64-pc-linux-gnu"

; Function Attrs: nounwind uwtable
define internal void @maskedmerge8(ptr noundef %0, ptr noundef %1, ptr noundef %2, ptr noundef %3, i64 noundef %4, i64 noundef %5, i64 noundef %6, i64 noundef %7, i32 noundef %8, i32 noundef %9, i32 noundef %10, i32 noundef %11) #2 {
  %13 = alloca ptr, align 8
  %14 = alloca ptr, align 8
  %15 = alloca ptr, align 8
  %16 = alloca ptr, align 8
  %17 = alloca i64, align 8
  %18 = alloca i64, align 8
  %19 = alloca i64, align 8
  %20 = alloca i64, align 8
  %21 = alloca i32, align 4
  %22 = alloca i32, align 4
  %23 = alloca i32, align 4
  %24 = alloca i32, align 4
  %25 = alloca ptr, align 8
  %26 = alloca ptr, align 8
  %27 = alloca ptr, align 8
  %28 = alloca ptr, align 8
  %29 = alloca i32, align 4
  %30 = alloca i32, align 4
  %31 = alloca i32, align 4
  %32 = alloca i8, align 1
  %33 = alloca i16, align 2
  store ptr %0, ptr %13, align 8, !tbaa !54
  store ptr %1, ptr %14, align 8, !tbaa !54
  store ptr %2, ptr %15, align 8, !tbaa !54
  store ptr %3, ptr %16, align 8, !tbaa !54
  store i64 %4, ptr %17, align 8, !tbaa !55
  store i64 %5, ptr %18, align 8, !tbaa !55
  store i64 %6, ptr %19, align 8, !tbaa !55
  store i64 %7, ptr %20, align 8, !tbaa !55
  store i32 %8, ptr %21, align 4, !tbaa !44
  store i32 %9, ptr %22, align 4, !tbaa !44
  store i32 %10, ptr %23, align 4, !tbaa !44
  store i32 %11, ptr %24, align 4, !tbaa !44
  call void @llvm.lifetime.start.p0(i64 8, ptr %25) #10
  %34 = load ptr, ptr %13, align 8, !tbaa !54
  store ptr %34, ptr %25, align 8, !tbaa !54
  call void @llvm.lifetime.start.p0(i64 8, ptr %26) #10
  %35 = load ptr, ptr %14, align 8, !tbaa !54
  store ptr %35, ptr %26, align 8, !tbaa !54
  call void @llvm.lifetime.start.p0(i64 8, ptr %27) #10
  %36 = load ptr, ptr %15, align 8, !tbaa !54
  store ptr %36, ptr %27, align 8, !tbaa !54
  call void @llvm.lifetime.start.p0(i64 8, ptr %28) #10
  %37 = load ptr, ptr %16, align 8, !tbaa !54
  store ptr %37, ptr %28, align 8, !tbaa !54
  %38 = load i64, ptr %20, align 8, !tbaa !55
  %39 = udiv i64 %38, 1
  store i64 %39, ptr %20, align 8, !tbaa !55
  %40 = load i64, ptr %17, align 8, !tbaa !55
  %41 = udiv i64 %40, 1
  store i64 %41, ptr %17, align 8, !tbaa !55
  %42 = load i64, ptr %18, align 8, !tbaa !55
  %43 = udiv i64 %42, 1
  store i64 %43, ptr %18, align 8, !tbaa !55
  %44 = load i64, ptr %19, align 8, !tbaa !55
  %45 = udiv i64 %44, 1
  store i64 %45, ptr %19, align 8, !tbaa !55
  call void @llvm.lifetime.start.p0(i64 4, ptr %29) #10
  store i32 0, ptr %29, align 4, !tbaa !44
  br label %46

46:                                               ; preds = %118, %12
  %47 = load i32, ptr %29, align 4, !tbaa !44
  %48 = load i32, ptr %22, align 4, !tbaa !44
  %49 = icmp slt i32 %47, %48
  br i1 %49, label %51, label %50

50:                                               ; preds = %46
  store i32 2, ptr %30, align 4
  call void @llvm.lifetime.end.p0(i64 4, ptr %29) #10
  br label %121

51:                                               ; preds = %46
  call void @llvm.lifetime.start.p0(i64 4, ptr %31) #10
  store i32 0, ptr %31, align 4, !tbaa !44
  br label %52

52:                                               ; preds = %102, %51
  %53 = load i32, ptr %31, align 4, !tbaa !44
  %54 = load i32, ptr %21, align 4, !tbaa !44
  %55 = icmp slt i32 %53, %54
  br i1 %55, label %57, label %56

56:                                               ; preds = %52
  store i32 5, ptr %30, align 4
  call void @llvm.lifetime.end.p0(i64 4, ptr %31) #10
  br label %105

57:                                               ; preds = %52
  call void @llvm.lifetime.start.p0(i64 1, ptr %32) #10
  %58 = load ptr, ptr %27, align 8, !tbaa !54
  %59 = load i32, ptr %31, align 4, !tbaa !44
  %60 = sext i32 %59 to i64
  %61 = getelementptr inbounds i8, ptr %58, i64 %60
  %62 = load i8, ptr %61, align 1, !tbaa !56
  %63 = zext i8 %62 to i32
  %64 = sub nsw i32 255, %63
  %65 = trunc i32 %64 to i8
  store i8 %65, ptr %32, align 1, !tbaa !56
  call void @llvm.lifetime.start.p0(i64 2, ptr %33) #10
  %66 = load ptr, ptr %25, align 8, !tbaa !54
  %67 = load i32, ptr %31, align 4, !tbaa !44
  %68 = sext i32 %67 to i64
  %69 = getelementptr inbounds i8, ptr %66, i64 %68
  %70 = load i8, ptr %69, align 1, !tbaa !56
  %71 = zext i8 %70 to i32
  %72 = load i8, ptr %32, align 1, !tbaa !56
  %73 = zext i8 %72 to i32
  %74 = mul nsw i32 %71, %73
  %75 = trunc i32 %74 to i16
  %76 = zext i16 %75 to i32
  %77 = load ptr, ptr %27, align 8, !tbaa !54
  %78 = load i32, ptr %31, align 4, !tbaa !44
  %79 = sext i32 %78 to i64
  %80 = getelementptr inbounds i8, ptr %77, i64 %79
  %81 = load i8, ptr %80, align 1, !tbaa !56
  %82 = zext i8 %81 to i32
  %83 = load ptr, ptr %26, align 8, !tbaa !54
  %84 = load i32, ptr %31, align 4, !tbaa !44
  %85 = sext i32 %84 to i64
  %86 = getelementptr inbounds i8, ptr %83, i64 %85
  %87 = load i8, ptr %86, align 1, !tbaa !56
  %88 = zext i8 %87 to i32
  %89 = mul nsw i32 %82, %88
  %90 = add nsw i32 %89, 127
  %91 = trunc i32 %90 to i16
  %92 = zext i16 %91 to i32
  %93 = add nsw i32 %76, %92
  %94 = sdiv i32 %93, 255
  %95 = trunc i32 %94 to i16
  store i16 %95, ptr %33, align 2, !tbaa !57
  %96 = load i16, ptr %33, align 2, !tbaa !57
  %97 = trunc i16 %96 to i8
  %98 = load ptr, ptr %28, align 8, !tbaa !54
  %99 = load i32, ptr %31, align 4, !tbaa !44
  %100 = sext i32 %99 to i64
  %101 = getelementptr inbounds i8, ptr %98, i64 %100
  store i8 %97, ptr %101, align 1, !tbaa !56
  call void @llvm.lifetime.end.p0(i64 2, ptr %33) #10
  call void @llvm.lifetime.end.p0(i64 1, ptr %32) #10
  br label %102

102:                                              ; preds = %57
  %103 = load i32, ptr %31, align 4, !tbaa !44
  %104 = add nsw i32 %103, 1
  store i32 %104, ptr %31, align 4, !tbaa !44
  br label %52, !llvm.loop !59

105:                                              ; preds = %56
  %106 = load i64, ptr %20, align 8, !tbaa !55
  %107 = load ptr, ptr %28, align 8, !tbaa !54
  %108 = getelementptr inbounds i8, ptr %107, i64 %106
  store ptr %108, ptr %28, align 8, !tbaa !54
  %109 = load i64, ptr %17, align 8, !tbaa !55
  %110 = load ptr, ptr %25, align 8, !tbaa !54
  %111 = getelementptr inbounds i8, ptr %110, i64 %109
  store ptr %111, ptr %25, align 8, !tbaa !54
  %112 = load i64, ptr %18, align 8, !tbaa !55
  %113 = load ptr, ptr %26, align 8, !tbaa !54
  %114 = getelementptr inbounds i8, ptr %113, i64 %112
  store ptr %114, ptr %26, align 8, !tbaa !54
  %115 = load i64, ptr %19, align 8, !tbaa !55
  %116 = load ptr, ptr %27, align 8, !tbaa !54
  %117 = getelementptr inbounds i8, ptr %116, i64 %115
  store ptr %117, ptr %27, align 8, !tbaa !54
  br label %118

118:                                              ; preds = %105
  %119 = load i32, ptr %29, align 4, !tbaa !44
  %120 = add nsw i32 %119, 1
  store i32 %120, ptr %29, align 4, !tbaa !44
  br label %46, !llvm.loop !61

121:                                              ; preds = %50
  call void @llvm.lifetime.end.p0(i64 8, ptr %28) #10
  call void @llvm.lifetime.end.p0(i64 8, ptr %27) #10
  call void @llvm.lifetime.end.p0(i64 8, ptr %26) #10
  call void @llvm.lifetime.end.p0(i64 8, ptr %25) #10
  ret void
}