; Function Attrs: nofree norecurse nosync nounwind memory(argmem: readwrite) uwtable
define internal void @maskedmerge8(ptr noundef readonly captures(none) %0, ptr noundef readonly captures(none) %1, ptr noundef readonly captures(none) %2, ptr noundef writeonly captures(none) %3, i64 noundef %4, i64 noundef %5, i64 noundef %6, i64 noundef %7, i32 noundef %8, i32 noundef %9, i32 %10, i32 %11) #4 {
  %13 = icmp sgt i32 %9, 0
  %14 = icmp sgt i32 %8, 0
  %or.cond = and i1 %13, %14
  br i1 %or.cond, label %.preheader.us.preheader, label %._crit_edge44

.preheader.us.preheader:                          ; preds = %12
  %wide.trip.count = zext nneg i32 %8 to i64
  br label %.preheader.us

.preheader.us:                                    ; preds = %.preheader.us.preheader, %._crit_edge.us
  %.03343.us = phi i32 [ %38, %._crit_edge.us ], [ 0, %.preheader.us.preheader ]
  %.03442.us = phi ptr [ %34, %._crit_edge.us ], [ %3, %.preheader.us.preheader ]
  %.03541.us = phi ptr [ %37, %._crit_edge.us ], [ %2, %.preheader.us.preheader ]
  %.03640.us = phi ptr [ %36, %._crit_edge.us ], [ %1, %.preheader.us.preheader ]
  %.03739.us = phi ptr [ %35, %._crit_edge.us ], [ %0, %.preheader.us.preheader ]
  br label %15

15:                                               ; preds = %.preheader.us, %15
  %indvars.iv = phi i64 [ 0, %.preheader.us ], [ %indvars.iv.next, %15 ]
  %16 = getelementptr inbounds nuw i8, ptr %.03541.us, i64 %indvars.iv
  %17 = load i8, ptr %16, align 1, !tbaa !47
  %18 = zext i8 %17 to i32
  %19 = xor i8 %17, -1
  %20 = getelementptr inbounds nuw i8, ptr %.03739.us, i64 %indvars.iv
  %21 = load i8, ptr %20, align 1, !tbaa !47
  %22 = zext i8 %21 to i32
  %23 = zext i8 %19 to i32
  %24 = mul nuw nsw i32 %22, %23
  %25 = getelementptr inbounds nuw i8, ptr %.03640.us, i64 %indvars.iv
  %26 = load i8, ptr %25, align 1, !tbaa !47
  %27 = zext i8 %26 to i32
  %28 = mul nuw nsw i32 %27, %18
  %29 = add nuw nsw i32 %24, 127
  %30 = add nuw nsw i32 %29, %28
  %31 = udiv i32 %30, 255
  %32 = trunc i32 %31 to i8
  %33 = getelementptr inbounds nuw i8, ptr %.03442.us, i64 %indvars.iv
  store i8 %32, ptr %33, align 1, !tbaa !47
  %indvars.iv.next = add nuw nsw i64 %indvars.iv, 1
  %exitcond.not = icmp eq i64 %indvars.iv.next, %wide.trip.count
  br i1 %exitcond.not, label %._crit_edge.us, label %15, !llvm.loop !48

._crit_edge.us:                                   ; preds = %15
  %34 = getelementptr inbounds i8, ptr %.03442.us, i64 %7
  %35 = getelementptr inbounds i8, ptr %.03739.us, i64 %4
  %36 = getelementptr inbounds i8, ptr %.03640.us, i64 %5
  %37 = getelementptr inbounds i8, ptr %.03541.us, i64 %6
  %38 = add nuw nsw i32 %.03343.us, 1
  %exitcond47.not = icmp eq i32 %38, %9
  br i1 %exitcond47.not, label %._crit_edge44, label %.preheader.us, !llvm.loop !50

._crit_edge44:                                    ; preds = %._crit_edge.us, %12
  ret void
}